target datalayout = "e-m:e-p270:32:32-p271:32:32-p272:64:64-i64:64-i128:128-f80:128-n8:16:32:64-S128"
target triple = "x86_64-pc-linux-gnu"

%struct.HashJoinTableData = type { i32, i32, i32, i32, i32, %union.anon, i8, ptr, i32, i32, ptr, i32, i32, i32, i32, i8, double, double, double, ptr, ptr, i64, i64, i64, i64, i64, ptr, ptr, ptr, ptr, ptr, ptr, ptr, ptr, i64 }
%union.anon = type { ptr }
%struct.ParallelHashJoinState = type { i64, i64, i32, i32, i32, i32, i64, i32, i64, i64, %struct.LWLock, %struct.Barrier, %struct.Barrier, %struct.Barrier, %struct.pg_atomic_uint32, %struct.SharedFileSet }
%struct.LWLock = type { i16, %struct.pg_atomic_uint32, %struct.proclist_head }
%struct.proclist_head = type { i32, i32 }
%struct.Barrier = type { i8, i32, i32, i32, i32, i8, %struct.ConditionVariable }
%struct.ConditionVariable = type { i8, %struct.proclist_head }
%struct.pg_atomic_uint32 = type { i32 }
%struct.SharedFileSet = type { %struct.FileSet, i8, i32 }
%struct.FileSet = type { i32, i32, i32, [8 x i32] }
%struct.ParallelHashJoinBatchAccessor = type { ptr, i64, i64, i64, i64, i64, i8, i8, i8, ptr, ptr }

; Function Attrs: nounwind uwtable
define dso_local void @ExecHashTableDetach(ptr noundef %0) #0 {
  %2 = alloca ptr, align 8
  %3 = alloca ptr, align 8
  %4 = alloca i32, align 4
  store ptr %0, ptr %2, align 8
  call void @llvm.lifetime.start.p0(i64 8, ptr %3) #9
  %5 = load ptr, ptr %2, align 8
  %6 = getelementptr inbounds nuw %struct.HashJoinTableData, ptr %5, i32 0, i32 32
  %7 = load ptr, ptr %6, align 8
  store ptr %7, ptr %3, align 8
  %8 = load ptr, ptr %3, align 8
  %9 = icmp ne ptr %8, null
  br i1 %9, label %10, label %84

10:                                               ; preds = %1
  %11 = load ptr, ptr %3, align 8
  %12 = getelementptr inbounds nuw %struct.ParallelHashJoinState, ptr %11, i32 0, i32 11
  %13 = call i32 @BarrierPhase(ptr noundef %12)
  %14 = icmp eq i32 %13, 4
  br i1 %14, label %15, label %84

15:                                               ; preds = %10
  call void @llvm.lifetime.start.p0(i64 4, ptr %4) #9
  %16 = load ptr, ptr %2, align 8
  %17 = getelementptr inbounds nuw %struct.HashJoinTableData, ptr %16, i32 0, i32 33
  %18 = load ptr, ptr %17, align 8
  %19 = icmp ne ptr %18, null
  br i1 %19, label %20, label %64

20:                                               ; preds = %15
  store i32 0, ptr %4, align 4
  br label %21

21:                                               ; preds = %60, %20
  %22 = load i32, ptr %4, align 4
  %23 = load ptr, ptr %2, align 8
  %24 = getelementptr inbounds nuw %struct.HashJoinTableData, ptr %23, i32 0, i32 11
  %25 = load i32, ptr %24, align 8
  %26 = icmp slt i32 %22, %25
  br i1 %26, label %27, label %63

27:                                               ; preds = %21
  %28 = load ptr, ptr %2, align 8
  %29 = getelementptr inbounds nuw %struct.HashJoinTableData, ptr %28, i32 0, i32 33
  %30 = load ptr, ptr %29, align 8
  %31 = load i32, ptr %4, align 4
  %32 = sext i32 %31 to i64
  %33 = getelementptr inbounds %struct.ParallelHashJoinBatchAccessor, ptr %30, i64 %32
  %34 = getelementptr inbounds nuw %struct.ParallelHashJoinBatchAccessor, ptr %33, i32 0, i32 9
  %35 = load ptr, ptr %34, align 8
  call void @sts_end_write(ptr noundef %35)
  %36 = load ptr, ptr %2, align 8
  %37 = getelementptr inbounds nuw %struct.HashJoinTableData, ptr %36, i32 0, i32 33
  %38 = load ptr, ptr %37, align 8
  %39 = load i32, ptr %4, align 4
  %40 = sext i32 %39 to i64
  %41 = getelementptr inbounds %struct.ParallelHashJoinBatchAccessor, ptr %38, i64 %40
  %42 = getelementptr inbounds nuw %struct.ParallelHashJoinBatchAccessor, ptr %41, i32 0, i32 10
  %43 = load ptr, ptr %42, align 8
  call void @sts_end_write(ptr noundef %43)
  %44 = load ptr, ptr %2, align 8
  %45 = getelementptr inbounds nuw %struct.HashJoinTableData, ptr %44, i32 0, i32 33
  %46 = load ptr, ptr %45, align 8
  %47 = load i32, ptr %4, align 4
  %48 = sext i32 %47 to i64
  %49 = getelementptr inbounds %struct.ParallelHashJoinBatchAccessor, ptr %46, i64 %48
  %50 = getelementptr inbounds nuw %struct.ParallelHashJoinBatchAccessor, ptr %49, i32 0, i32 9
  %51 = load ptr, ptr %50, align 8
  call void @sts_end_parallel_scan(ptr noundef %51)
  %52 = load ptr, ptr %2, align 8
  %53 = getelementptr inbounds nuw %struct.HashJoinTableData, ptr %52, i32 0, i32 33
  %54 = load ptr, ptr %53, align 8
  %55 = load i32, ptr %4, align 4
  %56 = sext i32 %55 to i64
  %57 = getelementptr inbounds %struct.ParallelHashJoinBatchAccessor, ptr %54, i64 %56
  %58 = getelementptr inbounds nuw %struct.ParallelHashJoinBatchAccessor, ptr %57, i32 0, i32 10
  %59 = load ptr, ptr %58, align 8
  call void @sts_end_parallel_scan(ptr noundef %59)
  br label %60

60:                                               ; preds = %27
  %61 = load i32, ptr %4, align 4
  %62 = add i32 %61, 1
  store i32 %62, ptr %4, align 4
  br label %21, !llvm.loop !27

63:                                               ; preds = %21
  br label %64

64:                                               ; preds = %63, %15
  %65 = load ptr, ptr %3, align 8
  %66 = getelementptr inbounds nuw %struct.ParallelHashJoinState, ptr %65, i32 0, i32 11
  %67 = call zeroext i1 @BarrierArriveAndDetach(ptr noundef %66)
  br i1 %67, label %68, label %83

68:                                               ; preds = %64
  %69 = load ptr, ptr %3, align 8
  %70 = getelementptr inbounds nuw %struct.ParallelHashJoinState, ptr %69, i32 0, i32 0
  %71 = load i64, ptr %70, align 8
  %72 = icmp ne i64 %71, 0
  br i1 %72, label %73, label %82

73:                                               ; preds = %68
  %74 = load ptr, ptr %2, align 8
  %75 = getelementptr inbounds nuw %struct.HashJoinTableData, ptr %74, i32 0, i32 31
  %76 = load ptr, ptr %75, align 8
  %77 = load ptr, ptr %3, align 8
  %78 = getelementptr inbounds nuw %struct.ParallelHashJoinState, ptr %77, i32 0, i32 0
  %79 = load i64, ptr %78, align 8
  call void @dsa_free(ptr noundef %76, i64 noundef %79)
  %80 = load ptr, ptr %3, align 8
  %81 = getelementptr inbounds nuw %struct.ParallelHashJoinState, ptr %80, i32 0, i32 0
  store i64 0, ptr %81, align 8
  br label %82

82:                                               ; preds = %73, %68
  br label %83

83:                                               ; preds = %82, %64
  call void @llvm.lifetime.end.p0(i64 4, ptr %4) #9
  br label %84

84:                                               ; preds = %83, %10, %1
  %85 = load ptr, ptr %2, align 8
  %86 = getelementptr inbounds nuw %struct.HashJoinTableData, ptr %85, i32 0, i32 32
  store ptr null, ptr %86, align 8
  call void @llvm.lifetime.end.p0(i64 8, ptr %3) #9
  ret void
}