; Function Attrs: nounwind uwtable
define dso_local void @ExecHashTableDetach(ptr noundef captures(none) %0) local_unnamed_addr #0 {
  %2 = getelementptr inbounds nuw i8, ptr %0, i64 216
  %3 = load ptr, ptr %2, align 8
  %.not = icmp eq ptr %3, null
  br i1 %.not, label %35, label %4

4:                                                ; preds = %1
  %5 = getelementptr inbounds nuw i8, ptr %3, i64 80
  %6 = tail call i32 @BarrierPhase(ptr noundef nonnull %5) #16
  %7 = icmp eq i32 %6, 4
  br i1 %7, label %8, label %35

8:                                                ; preds = %4
  %9 = getelementptr inbounds nuw i8, ptr %0, i64 224
  %10 = load ptr, ptr %9, align 8
  %.not22 = icmp eq ptr %10, null
  br i1 %.not22, label %.loopexit, label %.preheader

.preheader:                                       ; preds = %8
  %11 = getelementptr inbounds nuw i8, ptr %0, i64 64
  %12 = load i32, ptr %11, align 8
  %13 = icmp sgt i32 %12, 0
  br i1 %13, label %.lr.ph, label %.loopexit

.lr.ph:                                           ; preds = %.preheader, %.lr.ph
  %indvars.iv = phi i64 [ %indvars.iv.next, %.lr.ph ], [ 0, %.preheader ]
  %14 = load ptr, ptr %9, align 8
  %15 = getelementptr inbounds nuw %struct.ParallelHashJoinBatchAccessor, ptr %14, i64 %indvars.iv, i32 9
  %16 = load ptr, ptr %15, align 8
  tail call void @sts_end_write(ptr noundef %16) #16
  %17 = load ptr, ptr %9, align 8
  %18 = getelementptr inbounds nuw %struct.ParallelHashJoinBatchAccessor, ptr %17, i64 %indvars.iv, i32 10
  %19 = load ptr, ptr %18, align 8
  tail call void @sts_end_write(ptr noundef %19) #16
  %20 = load ptr, ptr %9, align 8
  %21 = getelementptr inbounds nuw %struct.ParallelHashJoinBatchAccessor, ptr %20, i64 %indvars.iv, i32 9
  %22 = load ptr, ptr %21, align 8
  tail call void @sts_end_parallel_scan(ptr noundef %22) #16
  %23 = load ptr, ptr %9, align 8
  %24 = getelementptr inbounds nuw %struct.ParallelHashJoinBatchAccessor, ptr %23, i64 %indvars.iv, i32 10
  %25 = load ptr, ptr %24, align 8
  tail call void @sts_end_parallel_scan(ptr noundef %25) #16
  %indvars.iv.next = add nuw nsw i64 %indvars.iv, 1
  %26 = load i32, ptr %11, align 8
  %27 = sext i32 %26 to i64
  %28 = icmp slt i64 %indvars.iv.next, %27
  br i1 %28, label %.lr.ph, label %.loopexit, !llvm.loop !34

.loopexit:                                        ; preds = %.lr.ph, %.preheader, %8
  %29 = tail call zeroext i1 @BarrierArriveAndDetach(ptr noundef nonnull %5) #16
  br i1 %29, label %30, label %35

30:                                               ; preds = %.loopexit
  %31 = load i64, ptr %3, align 8
  %.not23 = icmp eq i64 %31, 0
  br i1 %.not23, label %35, label %32

32:                                               ; preds = %30
  %33 = getelementptr inbounds nuw i8, ptr %0, i64 208
  %34 = load ptr, ptr %33, align 8
  tail call void @dsa_free(ptr noundef %34, i64 noundef %31) #16
  store i64 0, ptr %3, align 8
  br label %35

35:                                               ; preds = %.loopexit, %32, %30, %4, %1
  store ptr null, ptr %2, align 8
  ret void
}